	.file	"merge_sort_template.c"
	.text
.Ltext0:
	.globl	merge
	.type	merge, @function
merge:
.LFB5:
	.file 1 "q2.c"
	.loc 1 5 0
	.cfi_startproc
	pushq	%rbp
	.cfi_def_cfa_offset 16
	.cfi_offset 6, -16
	movq	%rsp, %rbp
	.cfi_def_cfa_register 6
	pushq	%r15
	pushq	%r14
	pushq	%r13
	pushq	%r12
	subq	$96, %rsp
	.cfi_offset 15, -24
	.cfi_offset 14, -32
	.cfi_offset 13, -40
	.cfi_offset 12, -48
	movq	%rdi, -104(%rbp)
	movl	%esi, -108(%rbp)
	movl	%edx, -112(%rbp)
	movl	%ecx, -116(%rbp)
	.loc 1 5 0
	movq	%fs:40, %rax
	movq	%rax, -40(%rbp)
	xorl	%eax, %eax
	movq	%rsp, %rax
	movq	%rax, %rsi
	.loc 1 7 0
	movl	-112(%rbp), %eax
	subl	-108(%rbp), %eax
	addl	$1, %eax
	movl	%eax, -80(%rbp)
	.loc 1 8 0
	movl	-116(%rbp), %eax
	subl	-112(%rbp), %eax
	movl	%eax, -76(%rbp)
	.loc 1 11 0
	movl	-80(%rbp), %eax
	movslq	%eax, %rdx
	subq	$1, %rdx
	movq	%rdx, -72(%rbp)
	movslq	%eax, %rdx
	movq	%rdx, %r14
	movl	$0, %r15d
	movslq	%eax, %rdx
	movq	%rdx, %r12
	movl	$0, %r13d
	cltq
	salq	$2, %rax
	leaq	3(%rax), %rdx
	movl	$16, %eax
	subq	$1, %rax
	addq	%rdx, %rax
	movl	$16, %edi
	movl	$0, %edx
	divq	%rdi
	imulq	$16, %rax, %rax
	subq	%rax, %rsp
	movq	%rsp, %rax
	addq	$3, %rax
	shrq	$2, %rax
	salq	$2, %rax
	movq	%rax, -64(%rbp)
	movl	-76(%rbp), %eax
	movslq	%eax, %rdx
	subq	$1, %rdx
	movq	%rdx, -56(%rbp)
	movslq	%eax, %rdx
	movq	%rdx, %r10
	movl	$0, %r11d
	movslq	%eax, %rdx
	movq	%rdx, %r8
	movl	$0, %r9d
	cltq
	salq	$2, %rax
	leaq	3(%rax), %rdx
	movl	$16, %eax
	subq	$1, %rax
	addq	%rdx, %rax
	movl	$16, %edi
	movl	$0, %edx
	divq	%rdi
	imulq	$16, %rax, %rax
	subq	%rax, %rsp
	movq	%rsp, %rax
	addq	$3, %rax
	shrq	$2, %rax
	salq	$2, %rax
	movq	%rax, -48(%rbp)
	.loc 1 14 0
	movl	$0, -84(%rbp)
	jmp	.L2
.L3:
	.loc 1 15 0 discriminator 3
	movl	-108(%rbp), %edx
	movl	-84(%rbp), %eax
	addl	%edx, %eax
	cltq
	leaq	0(,%rax,4), %rdx
	movq	-104(%rbp), %rax
	addq	%rdx, %rax
	movl	(%rax), %ecx
	movq	-64(%rbp), %rax
	movl	-84(%rbp), %edx
	movslq	%edx, %rdx
	movl	%ecx, (%rax,%rdx,4)
	.loc 1 14 0 discriminator 3
	addl	$1, -84(%rbp)
.L2:
	.loc 1 14 0 is_stmt 0 discriminator 1
	movl	-84(%rbp), %eax
	cmpl	-80(%rbp), %eax
	jl	.L3
	.loc 1 16 0 is_stmt 1
	movl	$0, -88(%rbp)
	jmp	.L4
.L5:
	.loc 1 17 0 discriminator 3
	movl	-112(%rbp), %eax
	leal	1(%rax), %edx
	movl	-88(%rbp), %eax
	addl	%edx, %eax
	cltq
	leaq	0(,%rax,4), %rdx
	movq	-104(%rbp), %rax
	addq	%rdx, %rax
	movl	(%rax), %ecx
	movq	-48(%rbp), %rax
	movl	-88(%rbp), %edx
	movslq	%edx, %rdx
	movl	%ecx, (%rax,%rdx,4)
	.loc 1 16 0 discriminator 3
	addl	$1, -88(%rbp)
.L4:
	.loc 1 16 0 is_stmt 0 discriminator 1
	movl	-88(%rbp), %eax
	cmpl	-76(%rbp), %eax
	jl	.L5
	.loc 1 20 0 is_stmt 1
	movl	$0, -84(%rbp)
	.loc 1 21 0
	movl	$0, -88(%rbp)
	.loc 1 22 0
	movl	-108(%rbp), %eax
	movl	%eax, -92(%rbp)
	.loc 1 23 0
	jmp	.L6
.L10:
	.loc 1 25 0
	movq	-64(%rbp), %rax
	movl	-84(%rbp), %edx
	movslq	%edx, %rdx
	movl	(%rax,%rdx,4), %ecx
	movq	-48(%rbp), %rax
	movl	-88(%rbp), %edx
	movslq	%edx, %rdx
	movl	(%rax,%rdx,4), %eax
	cmpl	%eax, %ecx
	jg	.L7
	.loc 1 27 0
	movl	-92(%rbp), %eax
	cltq
	leaq	0(,%rax,4), %rdx
	movq	-104(%rbp), %rax
	leaq	(%rdx,%rax), %rcx
	movq	-64(%rbp), %rax
	movl	-84(%rbp), %edx
	movslq	%edx, %rdx
	movl	(%rax,%rdx,4), %eax
	movl	%eax, (%rcx)
	.loc 1 28 0
	addl	$1, -84(%rbp)
	jmp	.L8
.L7:
	.loc 1 32 0
	movl	-92(%rbp), %eax
	cltq
	leaq	0(,%rax,4), %rdx
	movq	-104(%rbp), %rax
	leaq	(%rdx,%rax), %rcx
	movq	-48(%rbp), %rax
	movl	-88(%rbp), %edx
	movslq	%edx, %rdx
	movl	(%rax,%rdx,4), %eax
	movl	%eax, (%rcx)
	.loc 1 33 0
	addl	$1, -88(%rbp)
.L8:
	.loc 1 35 0
	addl	$1, -92(%rbp)
.L6:
	.loc 1 23 0
	movl	-84(%rbp), %eax
	cmpl	-80(%rbp), %eax
	jge	.L11
	.loc 1 23 0 is_stmt 0 discriminator 1
	movl	-88(%rbp), %eax
	cmpl	-76(%rbp), %eax
	jl	.L10
	.loc 1 40 0 is_stmt 1
	jmp	.L11
.L12:
	.loc 1 42 0
	movl	-92(%rbp), %eax
	cltq
	leaq	0(,%rax,4), %rdx
	movq	-104(%rbp), %rax
	leaq	(%rdx,%rax), %rcx
	movq	-64(%rbp), %rax
	movl	-84(%rbp), %edx
	movslq	%edx, %rdx
	movl	(%rax,%rdx,4), %eax
	movl	%eax, (%rcx)
	.loc 1 43 0
	addl	$1, -84(%rbp)
	.loc 1 44 0
	addl	$1, -92(%rbp)
.L11:
	.loc 1 40 0
	movl	-84(%rbp), %eax
	cmpl	-80(%rbp), %eax
	jl	.L12
	.loc 1 49 0
	jmp	.L13
.L14:
	.loc 1 51 0
	movl	-92(%rbp), %eax
	cltq
	leaq	0(,%rax,4), %rdx
	movq	-104(%rbp), %rax
	leaq	(%rdx,%rax), %rcx
	movq	-48(%rbp), %rax
	movl	-88(%rbp), %edx
	movslq	%edx, %rdx
	movl	(%rax,%rdx,4), %eax
	movl	%eax, (%rcx)
	.loc 1 52 0
	addl	$1, -88(%rbp)
	.loc 1 53 0
	addl	$1, -92(%rbp)
.L13:
	.loc 1 49 0
	movl	-88(%rbp), %eax
	cmpl	-76(%rbp), %eax
	jl	.L14
	movq	%rsi, %rsp
	.loc 1 55 0
	nop
	movq	-40(%rbp), %rax
	xorq	%fs:40, %rax
	je	.L15
	call	__stack_chk_fail@PLT
.L15:
	leaq	-32(%rbp), %rsp
	popq	%r12
	popq	%r13
	popq	%r14
	popq	%r15
	popq	%rbp
	.cfi_def_cfa 7, 8
	ret
	.cfi_endproc
.LFE5:
	.size	merge, .-merge
	.globl	merge_sort
	.type	merge_sort, @function
merge_sort:
.LFB6:
	.loc 1 59 0
	.cfi_startproc
	pushq	%rbp
	.cfi_def_cfa_offset 16
	.cfi_offset 6, -16
	movq	%rsp, %rbp
	.cfi_def_cfa_register 6
	subq	$32, %rsp
	movq	%rdi, -24(%rbp)
	movl	%esi, -28(%rbp)
	movl	%edx, -32(%rbp)
	.loc 1 61 0
	movl	-28(%rbp), %eax
	cmpl	-32(%rbp), %eax
	jge	.L19
.LBB2:
	.loc 1 65 0
	movl	-32(%rbp), %eax
	subl	-28(%rbp), %eax
	movl	%eax, %edx
	shrl	$31, %edx
	addl	%edx, %eax
	sarl	%eax
	movl	%eax, %edx
	movl	-28(%rbp), %eax
	addl	%edx, %eax
	movl	%eax, -4(%rbp)
	.loc 1 68 0
	movl	-4(%rbp), %edx
	movl	-28(%rbp), %ecx
	movq	-24(%rbp), %rax
	movl	%ecx, %esi
	movq	%rax, %rdi
	call	merge_sort
	.loc 1 69 0
	movl	-4(%rbp), %eax
	leal	1(%rax), %ecx
	movl	-32(%rbp), %edx
	movq	-24(%rbp), %rax
	movl	%ecx, %esi
	movq	%rax, %rdi
	call	merge_sort
	.loc 1 71 0
	movl	-4(%rbp), %eax
	cltq
	leaq	0(,%rax,4), %rdx
	movq	-24(%rbp), %rax
	addq	%rdx, %rax
	movl	(%rax), %edx
	movl	-4(%rbp), %eax
	cltq
	addq	$1, %rax
	leaq	0(,%rax,4), %rcx
	movq	-24(%rbp), %rax
	addq	%rcx, %rax
	movl	(%rax), %eax
	cmpl	%eax, %edx
	jle	.L19
	.loc 1 72 0
	movl	-32(%rbp), %ecx
	movl	-4(%rbp), %edx
	movl	-28(%rbp), %esi
	movq	-24(%rbp), %rax
	movq	%rax, %rdi
	call	merge
.LBE2:
	.loc 1 74 0
	nop
.L19:
	nop
	.loc 1 75 0
	leave
	.cfi_def_cfa 7, 8
	ret
	.cfi_endproc
.LFE6:
	.size	merge_sort, .-merge_sort
	.section	.rodata
.LC1:
	.string	"Took %f seconds to execute \n"
	.text
	.globl	main
	.type	main, @function
main:
.LFB7:
	.file 2 "merge_sort_template.c"
	.loc 2 13 0
	.cfi_startproc
	pushq	%rbp
	.cfi_def_cfa_offset 16
	.cfi_offset 6, -16
	movq	%rsp, %rbp
	.cfi_def_cfa_register 6
	subq	$4000064, %rsp
	.loc 2 13 0
	movq	%fs:40, %rax
	movq	%rax, -8(%rbp)
	xorl	%eax, %eax
.LBB3:
	.loc 2 18 0
	movl	$0, -4000044(%rbp)
	jmp	.L21
.L22:
	.loc 2 19 0 discriminator 3
	movl	$1000000, %eax
	subl	-4000044(%rbp), %eax
	movl	%eax, %edx
	movl	-4000044(%rbp), %eax
	cltq
	movl	%edx, -4000016(%rbp,%rax,4)
	.loc 2 18 0 discriminator 3
	addl	$1, -4000044(%rbp)
.L21:
	.loc 2 18 0 is_stmt 0 discriminator 1
	cmpl	$999999, -4000044(%rbp)
	jle	.L22
.LBE3:
	.loc 2 23 0 is_stmt 1
	call	clock@PLT
	movq	%rax, -4000040(%rbp)
	.loc 2 27 0
	leaq	-4000016(%rbp), %rax
	movl	$999999, %edx
	movl	$0, %esi
	movq	%rax, %rdi
	call	merge_sort
	.loc 2 29 0
	call	clock@PLT
	subq	-4000040(%rbp), %rax
	movq	%rax, -4000032(%rbp)
	.loc 2 31 0
	cvtsi2sdq	-4000032(%rbp), %xmm0
	movsd	.LC0(%rip), %xmm1
	divsd	%xmm1, %xmm0
	movsd	%xmm0, -4000024(%rbp)
	.loc 2 33 0
	movq	-4000024(%rbp), %rax
	movq	%rax, -4000056(%rbp)
	movsd	-4000056(%rbp), %xmm0
	leaq	.LC1(%rip), %rdi
	movl	$1, %eax
	call	printf@PLT
	movl	$0, %eax
	.loc 2 35 0
	movq	-8(%rbp), %rcx
	xorq	%fs:40, %rcx
	je	.L24
	call	__stack_chk_fail@PLT
.L24:
	leave
	.cfi_def_cfa 7, 8
	ret
	.cfi_endproc
.LFE7:
	.size	main, .-main
	.section	.rodata
	.align 8
.LC0:
	.long	0
	.long	1093567616
	.text
.Letext0:
	.file 3 "/usr/lib/gcc/x86_64-linux-gnu/7/include/stddef.h"
	.file 4 "/usr/include/x86_64-linux-gnu/bits/types.h"
	.file 5 "/usr/include/x86_64-linux-gnu/bits/libio.h"
	.file 6 "/usr/include/stdio.h"
	.file 7 "/usr/include/x86_64-linux-gnu/bits/sys_errlist.h"
	.file 8 "/usr/include/x86_64-linux-gnu/bits/types/clock_t.h"
	.file 9 "/usr/include/time.h"
	.section	.note.GNU-stack,"",@progbits
